target datalayout = "e-m:e-p270:32:32-p271:32:32-p272:64:64-i64:64-i128:128-f80:128-n8:16:32:64-S128"
target triple = "x86_64-pc-linux-gnu"

%struct.AVRational = type { i32, i32 }
%struct.AVChannelLayout = type { i32, i32, %union.anon, ptr }
%union.anon = type { i64 }
%struct.V4L2Buffer = type { ptr, ptr, i32, [8 x %struct.V4L2Plane_info], i32, %struct.v4l2_buffer, [8 x %struct.v4l2_plane], i32, i32 }
%struct.V4L2Plane_info = type { i32, ptr, i64 }
%struct.v4l2_buffer = type { i32, i32, i32, i32, i32, %struct.timeval, %struct.v4l2_timecode, i32, i32, %union.anon.0, i32, i32, %union.anon.1 }
%struct.timeval = type { i64, i64 }
%struct.v4l2_timecode = type { i32, i32, i8, i8, i8, i8, [4 x i8] }
%union.anon.0 = type { i64 }
%union.anon.1 = type { i32 }
%struct.v4l2_plane = type { i32, i32, %union.anon.2, i32, [11 x i32] }
%union.anon.2 = type { i64 }
%struct.v4l2_format = type { i32, %union.anon.3 }
%union.anon.3 = type { %struct.v4l2_window, [144 x i8] }
%struct.v4l2_window = type { %struct.v4l2_rect, i32, i32, ptr, i32, ptr, i8 }
%struct.v4l2_rect = type { i32, i32, i32, i32 }
%struct.V4L2Context = type { ptr, i32, i32, i32, %struct.v4l2_format, i32, i32, %struct.AVRational, ptr, i32, i32, i32 }
%struct.V4L2m2mContext = type { [4096 x i8], i32, %struct.V4L2Context, %struct.V4L2Context, ptr, %union.sem_t, i32, i32, i32, %struct.AVPacket, ptr, ptr, ptr }
%union.sem_t = type { i64, [24 x i8] }
%struct.AVPacket = type { ptr, i64, i64, ptr, i32, i32, i32, ptr, i32, i64, i64, ptr, ptr, %struct.AVRational }
%struct.AVCodecContext = type { ptr, i32, i32, ptr, i32, i32, ptr, ptr, ptr, i64, i32, i32, ptr, i32, %struct.AVRational, %struct.AVRational, %struct.AVRational, i32, i32, i32, i32, i32, %struct.AVRational, i32, i32, i32, i32, i32, i32, i32, i32, i32, i32, i32, ptr, ptr, i32, float, float, float, float, float, float, float, float, float, i32, i32, i32, i32, i32, i32, i32, i32, i32, i32, i32, i32, ptr, ptr, ptr, i32, i32, i32, i32, i32, i32, i32, i32, i32, i32, %struct.AVChannelLayout, i32, i32, i32, i32, i32, i32, i32, i32, ptr, i32, i32, i32, float, float, i32, i32, i32, i32, i32, ptr, i64, i64, float, float, i32, i32, ptr, ptr, i32, i32, i32, i32, i32, ptr, ptr, ptr, ptr, i32, i32, [8 x i64], i32, i32, i32, i32, i32, i32, i32, ptr, ptr, i32, i32, i32, i32, i32, i32, i32, i32, i32, i32, ptr, ptr, i32, i32, ptr, ptr, ptr, ptr, i32, i32, i64, i32, i32, i64, ptr, i64, ptr, i32, ptr, i32 }

@v4l2_timebase = internal global %struct.AVRational { i32 1, i32 1000000 }, align 4

; Function Attrs: inlinehint nounwind uwtable
define internal ptr @buf_to_m2mctx(ptr noundef %0) #1 {
  %2 = alloca ptr, align 8
  %3 = alloca ptr, align 8
  %4 = alloca ptr, align 8
  %5 = alloca ptr, align 8
  %6 = alloca ptr, align 8
  store ptr %0, ptr %2, align 8, !tbaa !9
  %7 = load ptr, ptr %2, align 8, !tbaa !9
  %8 = getelementptr inbounds nuw %struct.V4L2Buffer, ptr %7, i32 0, i32 0
  %9 = load ptr, ptr %8, align 8, !tbaa !32
  %10 = getelementptr inbounds nuw %struct.V4L2Context, ptr %9, i32 0, i32 1
  %11 = load i32, ptr %10, align 8, !tbaa !103
  %12 = icmp eq i32 %11, 2
  br i1 %12, label %62, label %13

13:                                               ; preds = %1
  %14 = load ptr, ptr %2, align 8, !tbaa !9
  %15 = getelementptr inbounds nuw %struct.V4L2Buffer, ptr %14, i32 0, i32 0
  %16 = load ptr, ptr %15, align 8, !tbaa !32
  %17 = getelementptr inbounds nuw %struct.V4L2Context, ptr %16, i32 0, i32 1
  %18 = load i32, ptr %17, align 8, !tbaa !103
  %19 = icmp eq i32 %18, 10
  br i1 %19, label %62, label %20

20:                                               ; preds = %13
  %21 = load ptr, ptr %2, align 8, !tbaa !9
  %22 = getelementptr inbounds nuw %struct.V4L2Buffer, ptr %21, i32 0, i32 0
  %23 = load ptr, ptr %22, align 8, !tbaa !32
  %24 = getelementptr inbounds nuw %struct.V4L2Context, ptr %23, i32 0, i32 1
  %25 = load i32, ptr %24, align 8, !tbaa !103
  %26 = icmp eq i32 %25, 3
  br i1 %26, label %62, label %27

27:                                               ; preds = %20
  %28 = load ptr, ptr %2, align 8, !tbaa !9
  %29 = getelementptr inbounds nuw %struct.V4L2Buffer, ptr %28, i32 0, i32 0
  %30 = load ptr, ptr %29, align 8, !tbaa !32
  %31 = getelementptr inbounds nuw %struct.V4L2Context, ptr %30, i32 0, i32 1
  %32 = load i32, ptr %31, align 8, !tbaa !103
  %33 = icmp eq i32 %32, 8
  br i1 %33, label %62, label %34

34:                                               ; preds = %27
  %35 = load ptr, ptr %2, align 8, !tbaa !9
  %36 = getelementptr inbounds nuw %struct.V4L2Buffer, ptr %35, i32 0, i32 0
  %37 = load ptr, ptr %36, align 8, !tbaa !32
  %38 = getelementptr inbounds nuw %struct.V4L2Context, ptr %37, i32 0, i32 1
  %39 = load i32, ptr %38, align 8, !tbaa !103
  %40 = icmp eq i32 %39, 5
  br i1 %40, label %62, label %41

41:                                               ; preds = %34
  %42 = load ptr, ptr %2, align 8, !tbaa !9
  %43 = getelementptr inbounds nuw %struct.V4L2Buffer, ptr %42, i32 0, i32 0
  %44 = load ptr, ptr %43, align 8, !tbaa !32
  %45 = getelementptr inbounds nuw %struct.V4L2Context, ptr %44, i32 0, i32 1
  %46 = load i32, ptr %45, align 8, !tbaa !103
  %47 = icmp eq i32 %46, 7
  br i1 %47, label %62, label %48

48:                                               ; preds = %41
  %49 = load ptr, ptr %2, align 8, !tbaa !9
  %50 = getelementptr inbounds nuw %struct.V4L2Buffer, ptr %49, i32 0, i32 0
  %51 = load ptr, ptr %50, align 8, !tbaa !32
  %52 = getelementptr inbounds nuw %struct.V4L2Context, ptr %51, i32 0, i32 1
  %53 = load i32, ptr %52, align 8, !tbaa !103
  %54 = icmp eq i32 %53, 12
  br i1 %54, label %62, label %55

55:                                               ; preds = %48
  %56 = load ptr, ptr %2, align 8, !tbaa !9
  %57 = getelementptr inbounds nuw %struct.V4L2Buffer, ptr %56, i32 0, i32 0
  %58 = load ptr, ptr %57, align 8, !tbaa !32
  %59 = getelementptr inbounds nuw %struct.V4L2Context, ptr %58, i32 0, i32 1
  %60 = load i32, ptr %59, align 8, !tbaa !103
  %61 = icmp eq i32 %60, 14
  br i1 %61, label %62, label %69

62:                                               ; preds = %55, %48, %41, %34, %27, %20, %13, %1
  call void @llvm.lifetime.start.p0(i64 8, ptr %3) #8
  %63 = load ptr, ptr %2, align 8, !tbaa !9
  %64 = getelementptr inbounds nuw %struct.V4L2Buffer, ptr %63, i32 0, i32 0
  %65 = load ptr, ptr %64, align 8, !tbaa !32
  store ptr %65, ptr %3, align 8, !tbaa !101
  %66 = load ptr, ptr %3, align 8, !tbaa !101
  %67 = getelementptr inbounds i8, ptr %66, i64 -4376
  store ptr %67, ptr %4, align 8, !tbaa !109
  call void @llvm.lifetime.end.p0(i64 8, ptr %3) #8
  %68 = load ptr, ptr %4, align 8, !tbaa !109
  br label %76

69:                                               ; preds = %55
  call void @llvm.lifetime.start.p0(i64 8, ptr %5) #8
  %70 = load ptr, ptr %2, align 8, !tbaa !9
  %71 = getelementptr inbounds nuw %struct.V4L2Buffer, ptr %70, i32 0, i32 0
  %72 = load ptr, ptr %71, align 8, !tbaa !32
  store ptr %72, ptr %5, align 8, !tbaa !101
  %73 = load ptr, ptr %5, align 8, !tbaa !101
  %74 = getelementptr inbounds i8, ptr %73, i64 -4104
  store ptr %74, ptr %6, align 8, !tbaa !109
  call void @llvm.lifetime.end.p0(i64 8, ptr %5) #8
  %75 = load ptr, ptr %6, align 8, !tbaa !109
  br label %76

76:                                               ; preds = %69, %62
  %77 = phi ptr [ %68, %62 ], [ %75, %69 ]
  ret ptr %77
}

; Function Attrs: inlinehint nounwind uwtable
define internal i64 @v4l2_get_timebase(ptr noundef %0) #1 {
  %2 = alloca %struct.AVRational, align 4
  %3 = alloca ptr, align 8
  %4 = alloca ptr, align 8
  %5 = alloca i32, align 4
  store ptr %0, ptr %3, align 8, !tbaa !9
  call void @llvm.lifetime.start.p0(i64 8, ptr %4) #8
  %6 = load ptr, ptr %3, align 8, !tbaa !9
  %7 = call ptr @buf_to_m2mctx(ptr noundef %6)
  store ptr %7, ptr %4, align 8, !tbaa !109
  %8 = load ptr, ptr %4, align 8, !tbaa !109
  %9 = getelementptr inbounds nuw %struct.V4L2m2mContext, ptr %8, i32 0, i32 4
  %10 = load ptr, ptr %9, align 8, !tbaa !78
  %11 = getelementptr inbounds nuw %struct.AVCodecContext, ptr %10, i32 0, i32 15
  %12 = getelementptr inbounds nuw %struct.AVRational, ptr %11, i32 0, i32 0
  %13 = load i32, ptr %12, align 4, !tbaa !110
  %14 = icmp ne i32 %13, 0
  br i1 %14, label %15, label %20

15:                                               ; preds = %1
  %16 = load ptr, ptr %4, align 8, !tbaa !109
  %17 = getelementptr inbounds nuw %struct.V4L2m2mContext, ptr %16, i32 0, i32 4
  %18 = load ptr, ptr %17, align 8, !tbaa !78
  %19 = getelementptr inbounds nuw %struct.AVCodecContext, ptr %18, i32 0, i32 15
  call void @llvm.memcpy.p0.p0.i64(ptr align 4 %2, ptr align 4 %19, i64 8, i1 false), !tbaa.struct !70
  store i32 1, ptr %5, align 4
  br label %25

20:                                               ; preds = %1
  %21 = load ptr, ptr %4, align 8, !tbaa !109
  %22 = getelementptr inbounds nuw %struct.V4L2m2mContext, ptr %21, i32 0, i32 4
  %23 = load ptr, ptr %22, align 8, !tbaa !78
  %24 = getelementptr inbounds nuw %struct.AVCodecContext, ptr %23, i32 0, i32 14
  call void @llvm.memcpy.p0.p0.i64(ptr align 4 %2, ptr align 4 %24, i64 8, i1 false), !tbaa.struct !70
  store i32 1, ptr %5, align 4
  br label %25

25:                                               ; preds = %20, %15
  call void @llvm.lifetime.end.p0(i64 8, ptr %4) #8
  %26 = load i64, ptr %2, align 4
  ret i64 %26
}

; Function Attrs: inlinehint nounwind uwtable
define internal void @v4l2_set_pts(ptr noundef %0, i64 noundef %1) #1 {
  %3 = alloca ptr, align 8
  %4 = alloca i64, align 8
  %5 = alloca i64, align 8
  %6 = alloca %struct.AVRational, align 4
  store ptr %0, ptr %3, align 8, !tbaa !9
  store i64 %1, ptr %4, align 8, !tbaa !23
  call void @llvm.lifetime.start.p0(i64 8, ptr %5) #8
  %7 = load i64, ptr %4, align 8, !tbaa !23
  %8 = icmp eq i64 %7, -9223372036854775808
  br i1 %8, label %9, label %10

9:                                                ; preds = %2
  store i64 0, ptr %4, align 8, !tbaa !23
  br label %10

10:                                               ; preds = %9, %2
  %11 = load i64, ptr %4, align 8, !tbaa !23
  %12 = load ptr, ptr %3, align 8, !tbaa !9
  %13 = call i64 @v4l2_get_timebase(ptr noundef %12)
  store i64 %13, ptr %6, align 4
  %14 = load i64, ptr %6, align 4
  %15 = load i64, ptr @v4l2_timebase, align 4
  %16 = call i64 @av_rescale_q(i64 noundef %11, i64 %14, i64 %15) #9
  store i64 %16, ptr %5, align 8, !tbaa !23
  %17 = load i64, ptr %5, align 8, !tbaa !23
  %18 = srem i64 %17, 1000000
  %19 = load ptr, ptr %3, align 8, !tbaa !9
  %20 = getelementptr inbounds nuw %struct.V4L2Buffer, ptr %19, i32 0, i32 5
  %21 = getelementptr inbounds nuw %struct.v4l2_buffer, ptr %20, i32 0, i32 5
  %22 = getelementptr inbounds nuw %struct.timeval, ptr %21, i32 0, i32 1
  store i64 %18, ptr %22, align 8, !tbaa !24
  %23 = load i64, ptr %5, align 8, !tbaa !23
  %24 = sdiv i64 %23, 1000000
  %25 = load ptr, ptr %3, align 8, !tbaa !9
  %26 = getelementptr inbounds nuw %struct.V4L2Buffer, ptr %25, i32 0, i32 5
  %27 = getelementptr inbounds nuw %struct.v4l2_buffer, ptr %26, i32 0, i32 5
  %28 = getelementptr inbounds nuw %struct.timeval, ptr %27, i32 0, i32 0
  store i64 %24, ptr %28, align 8, !tbaa !31
  call void @llvm.lifetime.end.p0(i64 8, ptr %5) #8
  ret void
}

; Function Attrs: nounwind uwtable
define internal i32 @v4l2_bufref_to_buf(ptr noundef %0, i32 noundef %1, ptr noundef %2, i32 noundef %3, i32 noundef %4) #0 {
  %6 = alloca i32, align 4
  %7 = alloca ptr, align 8
  %8 = alloca i32, align 4
  %9 = alloca ptr, align 8
  %10 = alloca i32, align 4
  %11 = alloca i32, align 4
  %12 = alloca i32, align 4
  %13 = alloca i32, align 4
  %14 = alloca i32, align 4
  store ptr %0, ptr %7, align 8, !tbaa !9
  store i32 %1, ptr %8, align 4, !tbaa !34
  store ptr %2, ptr %9, align 8, !tbaa !49
  store i32 %3, ptr %10, align 4, !tbaa !34
  store i32 %4, ptr %11, align 4, !tbaa !34
  call void @llvm.lifetime.start.p0(i64 4, ptr %12) #8
  call void @llvm.lifetime.start.p0(i64 4, ptr %13) #8
  %15 = load i32, ptr %8, align 4, !tbaa !34
  %16 = load ptr, ptr %7, align 8, !tbaa !9
  %17 = getelementptr inbounds nuw %struct.V4L2Buffer, ptr %16, i32 0, i32 4
  %18 = load i32, ptr %17, align 8, !tbaa !51
  %19 = icmp sge i32 %15, %18
  br i1 %19, label %20, label %21

20:                                               ; preds = %5
  store i32 -22, ptr %6, align 4
  store i32 1, ptr %14, align 4
  br label %104

21:                                               ; preds = %5
  %22 = load ptr, ptr %7, align 8, !tbaa !9
  %23 = getelementptr inbounds nuw %struct.V4L2Buffer, ptr %22, i32 0, i32 3
  %24 = load i32, ptr %8, align 4, !tbaa !34
  %25 = sext i32 %24 to i64
  %26 = getelementptr inbounds [8 x %struct.V4L2Plane_info], ptr %23, i64 0, i64 %25
  %27 = getelementptr inbounds nuw %struct.V4L2Plane_info, ptr %26, i32 0, i32 2
  %28 = load i64, ptr %27, align 8, !tbaa !97
  %29 = trunc i64 %28 to i32
  store i32 %29, ptr %13, align 4, !tbaa !34
  %30 = load i32, ptr %10, align 4, !tbaa !34
  %31 = load i32, ptr %11, align 4, !tbaa !34
  %32 = add nsw i32 %30, %31
  %33 = load i32, ptr %13, align 4, !tbaa !34
  %34 = icmp ugt i32 %32, %33
  br i1 %34, label %35, label %37

35:                                               ; preds = %21
  %36 = load i32, ptr %13, align 4, !tbaa !34
  br label %41

37:                                               ; preds = %21
  %38 = load i32, ptr %10, align 4, !tbaa !34
  %39 = load i32, ptr %11, align 4, !tbaa !34
  %40 = add nsw i32 %38, %39
  br label %41

41:                                               ; preds = %37, %35
  %42 = phi i32 [ %36, %35 ], [ %40, %37 ]
  store i32 %42, ptr %12, align 4, !tbaa !34
  %43 = load ptr, ptr %7, align 8, !tbaa !9
  %44 = getelementptr inbounds nuw %struct.V4L2Buffer, ptr %43, i32 0, i32 3
  %45 = load i32, ptr %8, align 4, !tbaa !34
  %46 = sext i32 %45 to i64
  %47 = getelementptr inbounds [8 x %struct.V4L2Plane_info], ptr %44, i64 0, i64 %46
  %48 = getelementptr inbounds nuw %struct.V4L2Plane_info, ptr %47, i32 0, i32 1
  %49 = load ptr, ptr %48, align 8, !tbaa !95
  %50 = load i32, ptr %11, align 4, !tbaa !34
  %51 = sext i32 %50 to i64
  %52 = getelementptr inbounds i8, ptr %49, i64 %51
  %53 = load ptr, ptr %9, align 8, !tbaa !49
  %54 = load i32, ptr %10, align 4, !tbaa !34
  %55 = load i32, ptr %13, align 4, !tbaa !34
  %56 = load i32, ptr %11, align 4, !tbaa !34
  %57 = sub i32 %55, %56
  %58 = icmp ugt i32 %54, %57
  br i1 %58, label %59, label %63

59:                                               ; preds = %41
  %60 = load i32, ptr %13, align 4, !tbaa !34
  %61 = load i32, ptr %11, align 4, !tbaa !34
  %62 = sub i32 %60, %61
  br label %65

63:                                               ; preds = %41
  %64 = load i32, ptr %10, align 4, !tbaa !34
  br label %65

65:                                               ; preds = %63, %59
  %66 = phi i32 [ %62, %59 ], [ %64, %63 ]
  %67 = zext i32 %66 to i64
  call void @llvm.memcpy.p0.p0.i64(ptr align 1 %52, ptr align 1 %53, i64 %67, i1 false)
  %68 = load ptr, ptr %7, align 8, !tbaa !9
  %69 = getelementptr inbounds nuw %struct.V4L2Buffer, ptr %68, i32 0, i32 5
  %70 = getelementptr inbounds nuw %struct.v4l2_buffer, ptr %69, i32 0, i32 1
  %71 = load i32, ptr %70, align 4, !tbaa !77
  %72 = icmp eq i32 %71, 9
  br i1 %72, label %79, label %73

73:                                               ; preds = %65
  %74 = load ptr, ptr %7, align 8, !tbaa !9
  %75 = getelementptr inbounds nuw %struct.V4L2Buffer, ptr %74, i32 0, i32 5
  %76 = getelementptr inbounds nuw %struct.v4l2_buffer, ptr %75, i32 0, i32 1
  %77 = load i32, ptr %76, align 4, !tbaa !77
  %78 = icmp eq i32 %77, 10
  br i1 %78, label %79, label %94

79:                                               ; preds = %73, %65
  %80 = load i32, ptr %12, align 4, !tbaa !34
  %81 = load ptr, ptr %7, align 8, !tbaa !9
  %82 = getelementptr inbounds nuw %struct.V4L2Buffer, ptr %81, i32 0, i32 6
  %83 = load i32, ptr %8, align 4, !tbaa !34
  %84 = sext i32 %83 to i64
  %85 = getelementptr inbounds [8 x %struct.v4l2_plane], ptr %82, i64 0, i64 %84
  %86 = getelementptr inbounds nuw %struct.v4l2_plane, ptr %85, i32 0, i32 0
  store i32 %80, ptr %86, align 8, !tbaa !85
  %87 = load i32, ptr %13, align 4, !tbaa !34
  %88 = load ptr, ptr %7, align 8, !tbaa !9
  %89 = getelementptr inbounds nuw %struct.V4L2Buffer, ptr %88, i32 0, i32 6
  %90 = load i32, ptr %8, align 4, !tbaa !34
  %91 = sext i32 %90 to i64
  %92 = getelementptr inbounds [8 x %struct.v4l2_plane], ptr %89, i64 0, i64 %91
  %93 = getelementptr inbounds nuw %struct.v4l2_plane, ptr %92, i32 0, i32 1
  store i32 %87, ptr %93, align 4, !tbaa !99
  br label %103

94:                                               ; preds = %73
  %95 = load i32, ptr %12, align 4, !tbaa !34
  %96 = load ptr, ptr %7, align 8, !tbaa !9
  %97 = getelementptr inbounds nuw %struct.V4L2Buffer, ptr %96, i32 0, i32 5
  %98 = getelementptr inbounds nuw %struct.v4l2_buffer, ptr %97, i32 0, i32 2
  store i32 %95, ptr %98, align 8, !tbaa !87
  %99 = load i32, ptr %13, align 4, !tbaa !34
  %100 = load ptr, ptr %7, align 8, !tbaa !9
  %101 = getelementptr inbounds nuw %struct.V4L2Buffer, ptr %100, i32 0, i32 5
  %102 = getelementptr inbounds nuw %struct.v4l2_buffer, ptr %101, i32 0, i32 10
  store i32 %99, ptr %102, align 8, !tbaa !100
  br label %103

103:                                              ; preds = %94, %79
  store i32 0, ptr %6, align 4
  store i32 1, ptr %14, align 4
  br label %104

104:                                              ; preds = %103, %20
  call void @llvm.lifetime.end.p0(i64 4, ptr %13) #8
  call void @llvm.lifetime.end.p0(i64 4, ptr %12) #8
  %105 = load i32, ptr %6, align 4
  ret i32 %105
}

; Function Attrs: nounwind uwtable
define i32 @ff_v4l2_buffer_avpkt_to_buf(ptr noundef %0, ptr noundef %1) #0 {
  %3 = alloca i32, align 4
  %4 = alloca ptr, align 8
  %5 = alloca ptr, align 8
  %6 = alloca i32, align 4
  %7 = alloca i32, align 4
  store ptr %0, ptr %4, align 8, !tbaa !83
  store ptr %1, ptr %5, align 8, !tbaa !9
  call void @llvm.lifetime.start.p0(i64 4, ptr %6) #8
  %8 = load ptr, ptr %5, align 8, !tbaa !9
  %9 = load ptr, ptr %4, align 8, !tbaa !83
  %10 = getelementptr inbounds nuw %struct.AVPacket, ptr %9, i32 0, i32 3
  %11 = load ptr, ptr %10, align 8, !tbaa !90
  %12 = load ptr, ptr %4, align 8, !tbaa !83
  %13 = getelementptr inbounds nuw %struct.AVPacket, ptr %12, i32 0, i32 4
  %14 = load i32, ptr %13, align 8, !tbaa !88
  %15 = call i32 @v4l2_bufref_to_buf(ptr noundef %8, i32 noundef 0, ptr noundef %11, i32 noundef %14, i32 noundef 0)
  store i32 %15, ptr %6, align 4, !tbaa !34
  %16 = load i32, ptr %6, align 4, !tbaa !34
  %17 = icmp ne i32 %16, 0
  br i1 %17, label %18, label %20

18:                                               ; preds = %2
  %19 = load i32, ptr %6, align 4, !tbaa !34
  store i32 %19, ptr %3, align 4
  store i32 1, ptr %7, align 4
  br label %34

20:                                               ; preds = %2
  %21 = load ptr, ptr %5, align 8, !tbaa !9
  %22 = load ptr, ptr %4, align 8, !tbaa !83
  %23 = getelementptr inbounds nuw %struct.AVPacket, ptr %22, i32 0, i32 1
  %24 = load i64, ptr %23, align 8, !tbaa !92
  call void @v4l2_set_pts(ptr noundef %21, i64 noundef %24)
  %25 = load ptr, ptr %4, align 8, !tbaa !83
  %26 = getelementptr inbounds nuw %struct.AVPacket, ptr %25, i32 0, i32 6
  %27 = load i32, ptr %26, align 8, !tbaa !91
  %28 = and i32 %27, 1
  %29 = icmp ne i32 %28, 0
  br i1 %29, label %30, label %33

30:                                               ; preds = %20
  %31 = load ptr, ptr %5, align 8, !tbaa !9
  %32 = getelementptr inbounds nuw %struct.V4L2Buffer, ptr %31, i32 0, i32 7
  store i32 8, ptr %32, align 8, !tbaa !98
  br label %33

33:                                               ; preds = %30, %20
  store i32 0, ptr %3, align 4
  store i32 1, ptr %7, align 4
  br label %34

34:                                               ; preds = %33, %18
  call void @llvm.lifetime.end.p0(i64 4, ptr %6) #8
  %35 = load i32, ptr %3, align 4
  ret i32 %35
}