; Function Attrs: mustprogress nofree nosync nounwind willreturn memory(readwrite, inaccessiblemem: none) uwtable
define range(i32 -22, 1) i32 @ff_v4l2_buffer_avpkt_to_buf(ptr noundef readonly captures(none) %0, ptr noundef captures(none) %1) local_unnamed_addr #3 {
  %3 = getelementptr inbounds nuw i8, ptr %1, i64 216
  %4 = load i32, ptr %3, align 8, !tbaa !50
  %.not.i = icmp sgt i32 %4, 0
  br i1 %.not.i, label %5, label %v4l2_bufref_to_buf.exit

5:                                                ; preds = %2
  %6 = getelementptr inbounds nuw i8, ptr %0, i64 32
  %7 = load i32, ptr %6, align 8, !tbaa !99
  %8 = getelementptr inbounds nuw i8, ptr %0, i64 24
  %9 = load ptr, ptr %8, align 8, !tbaa !101
  %10 = getelementptr inbounds nuw i8, ptr %1, i64 40
  %11 = load i64, ptr %10, align 8, !tbaa !61
  %12 = trunc i64 %11 to i32
  %13 = tail call i32 @llvm.umin.i32(i32 %7, i32 %12)
  %14 = getelementptr inbounds nuw i8, ptr %1, i64 32
  %15 = load ptr, ptr %14, align 8, !tbaa !63
  %16 = zext i32 %13 to i64
  tail call void @llvm.memcpy.p0.p0.i64(ptr align 1 %15, ptr readonly align 1 %9, i64 %16, i1 false)
  %17 = getelementptr inbounds nuw i8, ptr %1, i64 228
  %18 = load i32, ptr %17, align 4, !tbaa !64
  %.off.i = add i32 %18, -9
  %switch.i = icmp ult i32 %.off.i, 2
  br i1 %switch.i, label %19, label %22

19:                                               ; preds = %5
  %20 = getelementptr inbounds nuw i8, ptr %1, i64 312
  store i32 %13, ptr %20, align 8, !tbaa !65
  %21 = getelementptr inbounds nuw i8, ptr %1, i64 316
  store i32 %12, ptr %21, align 4, !tbaa !67
  br label %25

22:                                               ; preds = %5
  %23 = getelementptr inbounds nuw i8, ptr %1, i64 232
  store i32 %13, ptr %23, align 8, !tbaa !68
  %24 = getelementptr inbounds nuw i8, ptr %1, i64 296
  store i32 %12, ptr %24, align 8, !tbaa !69
  br label %25

25:                                               ; preds = %22, %19
  %26 = getelementptr inbounds nuw i8, ptr %0, i64 8
  %27 = load i64, ptr %26, align 8, !tbaa !103
  %.val.i = load ptr, ptr %1, align 8, !tbaa !19
  %28 = getelementptr inbounds nuw i8, ptr %.val.i, i64 8
  %29 = load i32, ptr %28, align 8, !tbaa !26
  %switch.tableidx = add i32 %29, -2
  %30 = icmp ult i32 %switch.tableidx, 13
  br i1 %30, label %switch.lookup, label %v4l2_set_pts.exit

switch.lookup:                                    ; preds = %25
  %31 = zext nneg i32 %switch.tableidx to i64
  %switch.gep = getelementptr inbounds nuw [13 x i64], ptr @switch.table.v4l2_free_buffer.16, i64 0, i64 %31
  %switch.load = load i64, ptr %switch.gep, align 8
  br label %v4l2_set_pts.exit

v4l2_set_pts.exit:                                ; preds = %25, %switch.lookup
  %.sink.i.i.i = phi i64 [ %switch.load, %switch.lookup ], [ -4104, %25 ]
  %32 = icmp eq i64 %27, -9223372036854775808
  %spec.store.select.i = select i1 %32, i64 0, i64 %27
  %33 = getelementptr inbounds i8, ptr %.val.i, i64 %.sink.i.i.i
  %34 = getelementptr inbounds nuw i8, ptr %33, i64 4648
  %35 = load ptr, ptr %34, align 8, !tbaa !31
  %36 = getelementptr inbounds nuw i8, ptr %35, i64 92
  %37 = load i32, ptr %36, align 4, !tbaa !37
  %.not.i.i = icmp eq i32 %37, 0
  %38 = getelementptr inbounds nuw i8, ptr %35, i64 84
  %.sroa.0.0.in.i.i = select i1 %.not.i.i, ptr %38, ptr %36
  %.sroa.0.0.i.i = load i64, ptr %.sroa.0.0.in.i.i, align 4
  %39 = tail call i64 @av_rescale_q(i64 noundef %spec.store.select.i, i64 %.sroa.0.0.i.i, i64 4294967296000001) #7
  %40 = srem i64 %39, 1000000
  %41 = getelementptr inbounds nuw i8, ptr %1, i64 248
  %42 = getelementptr inbounds nuw i8, ptr %1, i64 256
  store i64 %40, ptr %42, align 8, !tbaa !48
  %43 = sdiv i64 %39, 1000000
  store i64 %43, ptr %41, align 8, !tbaa !49
  %44 = getelementptr inbounds nuw i8, ptr %0, i64 40
  %45 = load i32, ptr %44, align 8, !tbaa !102
  %46 = and i32 %45, 1
  %.not10 = icmp eq i32 %46, 0
  br i1 %.not10, label %v4l2_bufref_to_buf.exit, label %47

47:                                               ; preds = %v4l2_set_pts.exit
  %48 = getelementptr inbounds nuw i8, ptr %1, i64 824
  store i32 8, ptr %48, align 8, !tbaa !105
  br label %v4l2_bufref_to_buf.exit

v4l2_bufref_to_buf.exit:                          ; preds = %2, %v4l2_set_pts.exit, %47
  %.0 = phi i32 [ 0, %47 ], [ 0, %v4l2_set_pts.exit ], [ -22, %2 ]
  ret i32 %.0
}